target datalayout = "e-m:e-p270:32:32-p271:32:32-p272:64:64-i64:64-i128:128-f80:128-n8:16:32:64-S128"
target triple = "x86_64-pc-linux-gnu"

@j2d_glEnable = external global ptr, align 8
@j2d_glBindTexture = external global ptr, align 8
@j2d_glActiveTextureARB = external global ptr, align 8
@cachedDestTextureID = internal global i32 0, align 4
@lcdTextProgram = internal global i32 0, align 4
@j2d_glUseProgramObjectARB = external global ptr, align 8
@lastLCDContrast = internal global i32 -1, align 4
@lcdTextShaderSource = internal global ptr @.str.5, align 8
@.str.2 = private unnamed_addr constant [51 x i8] c"OGLTR_CreateLCDTextProgram: error creating program\00", align 1
@j2d_glGetUniformLocationARB = external global ptr, align 8
@.str.3 = private unnamed_addr constant [10 x i8] c"glyph_tex\00", align 1
@j2d_glUniform1iARB = external global ptr, align 8
@.str.4 = private unnamed_addr constant [8 x i8] c"dst_tex\00", align 1
@.str.6 = private unnamed_addr constant [6 x i8] c"gamma\00", align 1
@j2d_glUniform3fARB = external global ptr, align 8
@.str.7 = private unnamed_addr constant [9 x i8] c"invgamma\00", align 1
@j2d_glGetFloatv = external global ptr, align 8
@.str.8 = private unnamed_addr constant [8 x i8] c"src_adj\00", align 1

; Function Attrs: nounwind uwtable
define internal zeroext i8 @OGLTR_UpdateLCDTextColor(i32 noundef %0) #0 {
  %2 = alloca i32, align 4
  %3 = alloca double, align 8
  %4 = alloca float, align 4
  %5 = alloca float, align 4
  %6 = alloca float, align 4
  %7 = alloca [4 x float], align 16
  %8 = alloca i32, align 4
  store i32 %0, ptr %2, align 4
  %9 = load i32, ptr %2, align 4
  %10 = sitofp i32 %9 to double
  %11 = fdiv double %10, 1.000000e+02
  store double %11, ptr %3, align 8
  %12 = load ptr, ptr @j2d_glGetFloatv, align 8
  %13 = getelementptr inbounds [4 x float], ptr %7, i64 0, i64 0
  call void %12(i32 noundef 2816, ptr noundef %13)
  %14 = getelementptr inbounds [4 x float], ptr %7, i64 0, i64 0
  %15 = load float, ptr %14, align 16
  %16 = fpext float %15 to double
  %17 = load double, ptr %3, align 8
  %18 = call double @pow(double noundef %16, double noundef %17) #4
  %19 = fptrunc double %18 to float
  store float %19, ptr %4, align 4
  %20 = getelementptr inbounds [4 x float], ptr %7, i64 0, i64 1
  %21 = load float, ptr %20, align 4
  %22 = fpext float %21 to double
  %23 = load double, ptr %3, align 8
  %24 = call double @pow(double noundef %22, double noundef %23) #4
  %25 = fptrunc double %24 to float
  store float %25, ptr %5, align 4
  %26 = getelementptr inbounds [4 x float], ptr %7, i64 0, i64 2
  %27 = load float, ptr %26, align 8
  %28 = fpext float %27 to double
  %29 = load double, ptr %3, align 8
  %30 = call double @pow(double noundef %28, double noundef %29) #4
  %31 = fptrunc double %30 to float
  store float %31, ptr %6, align 4
  %32 = load ptr, ptr @j2d_glGetUniformLocationARB, align 8
  %33 = load i32, ptr @lcdTextProgram, align 4
  %34 = call i32 %32(i32 noundef %33, ptr noundef @.str.8)
  store i32 %34, ptr %8, align 4
  %35 = load ptr, ptr @j2d_glUniform3fARB, align 8
  %36 = load i32, ptr %8, align 4
  %37 = load float, ptr %4, align 4
  %38 = load float, ptr %5, align 4
  %39 = load float, ptr %6, align 4
  call void %35(i32 noundef %36, float noundef %37, float noundef %38, float noundef %39)
  ret i8 1
}

; Function Attrs: nounwind uwtable
define internal zeroext i8 @OGLTR_UpdateLCDTextContrast(i32 noundef %0) #0 {
  %2 = alloca i32, align 4
  %3 = alloca double, align 8
  %4 = alloca double, align 8
  %5 = alloca i32, align 4
  store i32 %0, ptr %2, align 4
  %6 = load i32, ptr %2, align 4
  %7 = sitofp i32 %6 to double
  %8 = fdiv double %7, 1.000000e+02
  store double %8, ptr %3, align 8
  %9 = load double, ptr %3, align 8
  %10 = fdiv double 1.000000e+00, %9
  store double %10, ptr %4, align 8
  %11 = load ptr, ptr @j2d_glGetUniformLocationARB, align 8
  %12 = load i32, ptr @lcdTextProgram, align 4
  %13 = call i32 %11(i32 noundef %12, ptr noundef @.str.6)
  store i32 %13, ptr %5, align 4
  %14 = load ptr, ptr @j2d_glUniform3fARB, align 8
  %15 = load i32, ptr %5, align 4
  %16 = load double, ptr %3, align 8
  %17 = fptrunc double %16 to float
  %18 = load double, ptr %3, align 8
  %19 = fptrunc double %18 to float
  %20 = load double, ptr %3, align 8
  %21 = fptrunc double %20 to float
  call void %14(i32 noundef %15, float noundef %17, float noundef %19, float noundef %21)
  %22 = load ptr, ptr @j2d_glGetUniformLocationARB, align 8
  %23 = load i32, ptr @lcdTextProgram, align 4
  %24 = call i32 %22(i32 noundef %23, ptr noundef @.str.7)
  store i32 %24, ptr %5, align 4
  %25 = load ptr, ptr @j2d_glUniform3fARB, align 8
  %26 = load i32, ptr %5, align 4
  %27 = load double, ptr %4, align 8
  %28 = fptrunc double %27 to float
  %29 = load double, ptr %4, align 8
  %30 = fptrunc double %29 to float
  %31 = load double, ptr %4, align 8
  %32 = fptrunc double %31 to float
  call void %25(i32 noundef %26, float noundef %28, float noundef %30, float noundef %32)
  ret i8 1
}

; Function Attrs: nounwind uwtable
define internal i32 @OGLTR_CreateLCDTextProgram() #0 {
  %1 = alloca i32, align 4
  %2 = alloca i32, align 4
  %3 = alloca i32, align 4
  %4 = load ptr, ptr @lcdTextShaderSource, align 8
  %5 = call i32 @OGLContext_CreateFragmentProgram(ptr noundef %4)
  store i32 %5, ptr %2, align 4
  %6 = load i32, ptr %2, align 4
  %7 = icmp eq i32 %6, 0
  br i1 %7, label %8, label %9

8:                                                ; preds = %0
  call void (i32, i8, ptr, ...) @J2dTraceImpl(i32 noundef 1, i8 noundef zeroext 1, ptr noundef @.str.2)
  store i32 0, ptr %1, align 4
  br label %24

9:                                                ; preds = %0
  %10 = load ptr, ptr @j2d_glUseProgramObjectARB, align 8
  %11 = load i32, ptr %2, align 4
  call void %10(i32 noundef %11)
  %12 = load ptr, ptr @j2d_glGetUniformLocationARB, align 8
  %13 = load i32, ptr %2, align 4
  %14 = call i32 %12(i32 noundef %13, ptr noundef @.str.3)
  store i32 %14, ptr %3, align 4
  %15 = load ptr, ptr @j2d_glUniform1iARB, align 8
  %16 = load i32, ptr %3, align 4
  call void %15(i32 noundef %16, i32 noundef 0)
  %17 = load ptr, ptr @j2d_glGetUniformLocationARB, align 8
  %18 = load i32, ptr %2, align 4
  %19 = call i32 %17(i32 noundef %18, ptr noundef @.str.4)
  store i32 %19, ptr %3, align 4
  %20 = load ptr, ptr @j2d_glUniform1iARB, align 8
  %21 = load i32, ptr %3, align 4
  call void %20(i32 noundef %21, i32 noundef 1)
  %22 = load ptr, ptr @j2d_glUseProgramObjectARB, align 8
  call void %22(i32 noundef 0)
  %23 = load i32, ptr %2, align 4
  store i32 %23, ptr %1, align 4
  br label %24

24:                                               ; preds = %9, %8
  %25 = load i32, ptr %1, align 4
  ret i32 %25
}

; Function Attrs: nounwind uwtable
define internal zeroext i8 @OGLTR_EnableLCDGlyphModeState(i32 noundef %0, i32 noundef %1, i32 noundef %2) #0 {
  %4 = alloca i8, align 1
  %5 = alloca i32, align 4
  %6 = alloca i32, align 4
  %7 = alloca i32, align 4
  store i32 %0, ptr %5, align 4
  store i32 %1, ptr %6, align 4
  store i32 %2, ptr %7, align 4
  %8 = load ptr, ptr @j2d_glActiveTextureARB, align 8
  call void %8(i32 noundef 33984)
  %9 = load ptr, ptr @j2d_glBindTexture, align 8
  %10 = load i32, ptr %5, align 4
  call void %9(i32 noundef 3553, i32 noundef %10)
  %11 = load ptr, ptr @j2d_glEnable, align 8
  call void %11(i32 noundef 3553)
  %12 = load ptr, ptr @j2d_glActiveTextureARB, align 8
  call void %12(i32 noundef 33985)
  %13 = load i32, ptr %6, align 4
  %14 = icmp ne i32 %13, 0
  br i1 %14, label %15, label %18

15:                                               ; preds = %3
  %16 = load ptr, ptr @j2d_glBindTexture, align 8
  %17 = load i32, ptr %6, align 4
  call void %16(i32 noundef 3553, i32 noundef %17)
  br label %30

18:                                               ; preds = %3
  %19 = load i32, ptr @cachedDestTextureID, align 4
  %20 = icmp eq i32 %19, 0
  br i1 %20, label %21, label %27

21:                                               ; preds = %18
  %22 = call i32 @OGLContext_CreateBlitTexture(i32 noundef 32849, i32 noundef 6407, i32 noundef 512, i32 noundef 64)
  store i32 %22, ptr @cachedDestTextureID, align 4
  %23 = load i32, ptr @cachedDestTextureID, align 4
  %24 = icmp eq i32 %23, 0
  br i1 %24, label %25, label %26

25:                                               ; preds = %21
  store i8 0, ptr %4, align 1
  br label %59

26:                                               ; preds = %21
  br label %27

27:                                               ; preds = %26, %18
  %28 = load ptr, ptr @j2d_glBindTexture, align 8
  %29 = load i32, ptr @cachedDestTextureID, align 4
  call void %28(i32 noundef 3553, i32 noundef %29)
  br label %30

30:                                               ; preds = %27, %15
  %31 = load ptr, ptr @j2d_glEnable, align 8
  call void %31(i32 noundef 3553)
  %32 = load i32, ptr @lcdTextProgram, align 4
  %33 = icmp eq i32 %32, 0
  br i1 %33, label %34, label %40

34:                                               ; preds = %30
  %35 = call i32 @OGLTR_CreateLCDTextProgram()
  store i32 %35, ptr @lcdTextProgram, align 4
  %36 = load i32, ptr @lcdTextProgram, align 4
  %37 = icmp eq i32 %36, 0
  br i1 %37, label %38, label %39

38:                                               ; preds = %34
  store i8 0, ptr %4, align 1
  br label %59

39:                                               ; preds = %34
  br label %40

40:                                               ; preds = %39, %30
  %41 = load ptr, ptr @j2d_glUseProgramObjectARB, align 8
  %42 = load i32, ptr @lcdTextProgram, align 4
  call void %41(i32 noundef %42)
  %43 = load i32, ptr @lastLCDContrast, align 4
  %44 = load i32, ptr %7, align 4
  %45 = icmp ne i32 %43, %44
  br i1 %45, label %46, label %53

46:                                               ; preds = %40
  %47 = load i32, ptr %7, align 4
  %48 = call zeroext i8 @OGLTR_UpdateLCDTextContrast(i32 noundef %47)
  %49 = icmp ne i8 %48, 0
  br i1 %49, label %51, label %50

50:                                               ; preds = %46
  store i8 0, ptr %4, align 1
  br label %59

51:                                               ; preds = %46
  %52 = load i32, ptr %7, align 4
  store i32 %52, ptr @lastLCDContrast, align 4
  br label %53

53:                                               ; preds = %51, %40
  %54 = load i32, ptr %7, align 4
  %55 = call zeroext i8 @OGLTR_UpdateLCDTextColor(i32 noundef %54)
  %56 = icmp ne i8 %55, 0
  br i1 %56, label %58, label %57

57:                                               ; preds = %53
  store i8 0, ptr %4, align 1
  br label %59

58:                                               ; preds = %53
  store i8 1, ptr %4, align 1
  br label %59

59:                                               ; preds = %58, %57, %50, %38, %25
  %60 = load i8, ptr %4, align 1
  ret i8 %60
}