; Function Attrs: nounwind uwtable
define internal fastcc zeroext range(i8 0, 2) i8 @OGLTR_EnableLCDGlyphModeState(i32 noundef %0, i32 noundef %1, i32 noundef %2) unnamed_addr #0 {
  %4 = alloca [4 x float], align 16
  %5 = load ptr, ptr @j2d_glActiveTextureARB, align 8
  tail call void %5(i32 noundef 33984) #5
  %6 = load ptr, ptr @j2d_glBindTexture, align 8
  tail call void %6(i32 noundef 3553, i32 noundef %0) #5
  %7 = load ptr, ptr @j2d_glEnable, align 8
  tail call void %7(i32 noundef 3553) #5
  %8 = load ptr, ptr @j2d_glActiveTextureARB, align 8
  tail call void %8(i32 noundef 33985) #5
  %.not = icmp eq i32 %1, 0
  br i1 %.not, label %9, label %15

9:                                                ; preds = %3
  %10 = load i32, ptr @cachedDestTextureID, align 4
  %11 = icmp eq i32 %10, 0
  br i1 %11, label %12, label %15

12:                                               ; preds = %9
  %13 = tail call i32 @OGLContext_CreateBlitTexture(i32 noundef 32849, i32 noundef 6407, i32 noundef 512, i32 noundef 64) #5
  store i32 %13, ptr @cachedDestTextureID, align 4
  %14 = icmp eq i32 %13, 0
  br i1 %14, label %66, label %15

15:                                               ; preds = %9, %12, %3
  %.sink = phi i32 [ %1, %3 ], [ %13, %12 ], [ %10, %9 ]
  %16 = load ptr, ptr @j2d_glBindTexture, align 8
  tail call void %16(i32 noundef 3553, i32 noundef %.sink) #5
  %17 = load ptr, ptr @j2d_glEnable, align 8
  tail call void %17(i32 noundef 3553) #5
  %18 = load i32, ptr @lcdTextProgram, align 4
  %19 = icmp eq i32 %18, 0
  br i1 %19, label %20, label %31

20:                                               ; preds = %15
  %21 = tail call i32 @OGLContext_CreateFragmentProgram(ptr noundef nonnull @.str.5) #5
  %22 = icmp eq i32 %21, 0
  br i1 %22, label %OGLTR_CreateLCDTextProgram.exit.thread, label %OGLTR_CreateLCDTextProgram.exit

OGLTR_CreateLCDTextProgram.exit.thread:           ; preds = %20
  tail call void (i32, i8, ptr, ...) @J2dTraceImpl(i32 noundef 1, i8 noundef zeroext 1, ptr noundef nonnull @.str.2) #5
  store i32 0, ptr @lcdTextProgram, align 4
  br label %66

OGLTR_CreateLCDTextProgram.exit:                  ; preds = %20
  %23 = load ptr, ptr @j2d_glUseProgramObjectARB, align 8
  tail call void %23(i32 noundef %21) #5
  %24 = load ptr, ptr @j2d_glGetUniformLocationARB, align 8
  %25 = tail call i32 %24(i32 noundef %21, ptr noundef nonnull @.str.3) #5
  %26 = load ptr, ptr @j2d_glUniform1iARB, align 8
  tail call void %26(i32 noundef %25, i32 noundef 0) #5
  %27 = load ptr, ptr @j2d_glGetUniformLocationARB, align 8
  %28 = tail call i32 %27(i32 noundef %21, ptr noundef nonnull @.str.4) #5
  %29 = load ptr, ptr @j2d_glUniform1iARB, align 8
  tail call void %29(i32 noundef %28, i32 noundef 1) #5
  %30 = load ptr, ptr @j2d_glUseProgramObjectARB, align 8
  tail call void %30(i32 noundef 0) #5
  store i32 %21, ptr @lcdTextProgram, align 4
  br label %31

31:                                               ; preds = %OGLTR_CreateLCDTextProgram.exit, %15
  %32 = phi i32 [ %21, %OGLTR_CreateLCDTextProgram.exit ], [ %18, %15 ]
  %33 = load ptr, ptr @j2d_glUseProgramObjectARB, align 8
  tail call void %33(i32 noundef %32) #5
  %34 = load i32, ptr @lastLCDContrast, align 4
  %.not10 = icmp eq i32 %34, %2
  %.pre = sitofp i32 %2 to double
  %.pre11 = fdiv double %.pre, 1.000000e+02
  br i1 %.not10, label %._crit_edge, label %35

35:                                               ; preds = %31
  %36 = fdiv double 1.000000e+00, %.pre11
  %37 = load ptr, ptr @j2d_glGetUniformLocationARB, align 8
  %38 = load i32, ptr @lcdTextProgram, align 4
  %39 = tail call i32 %37(i32 noundef %38, ptr noundef nonnull @.str.6) #5
  %40 = load ptr, ptr @j2d_glUniform3fARB, align 8
  %41 = fptrunc double %.pre11 to float
  tail call void %40(i32 noundef %39, float noundef %41, float noundef %41, float noundef %41) #5
  %42 = load ptr, ptr @j2d_glGetUniformLocationARB, align 8
  %43 = load i32, ptr @lcdTextProgram, align 4
  %44 = tail call i32 %42(i32 noundef %43, ptr noundef nonnull @.str.7) #5
  %45 = load ptr, ptr @j2d_glUniform3fARB, align 8
  %46 = fptrunc double %36 to float
  tail call void %45(i32 noundef %44, float noundef %46, float noundef %46, float noundef %46) #5
  store i32 %2, ptr @lastLCDContrast, align 4
  br label %._crit_edge

._crit_edge:                                      ; preds = %31, %35
  call void @llvm.lifetime.start.p0(i64 16, ptr nonnull %4)
  %47 = load ptr, ptr @j2d_glGetFloatv, align 8
  call void %47(i32 noundef 2816, ptr noundef nonnull %4) #5
  %48 = load float, ptr %4, align 16
  %49 = fpext float %48 to double
  %50 = call double @pow(double noundef %49, double noundef %.pre11) #5
  %51 = fptrunc double %50 to float
  %52 = getelementptr inbounds i8, ptr %4, i64 4
  %53 = load float, ptr %52, align 4
  %54 = fpext float %53 to double
  %55 = call double @pow(double noundef %54, double noundef %.pre11) #5
  %56 = fptrunc double %55 to float
  %57 = getelementptr inbounds i8, ptr %4, i64 8
  %58 = load float, ptr %57, align 8
  %59 = fpext float %58 to double
  %60 = call double @pow(double noundef %59, double noundef %.pre11) #5
  %61 = fptrunc double %60 to float
  %62 = load ptr, ptr @j2d_glGetUniformLocationARB, align 8
  %63 = load i32, ptr @lcdTextProgram, align 4
  %64 = call i32 %62(i32 noundef %63, ptr noundef nonnull @.str.8) #5
  %65 = load ptr, ptr @j2d_glUniform3fARB, align 8
  call void %65(i32 noundef %64, float noundef %51, float noundef %56, float noundef %61) #5
  call void @llvm.lifetime.end.p0(i64 16, ptr nonnull %4)
  br label %66

66:                                               ; preds = %OGLTR_CreateLCDTextProgram.exit.thread, %12, %._crit_edge
  %.0 = phi i8 [ 1, %._crit_edge ], [ 0, %12 ], [ 0, %OGLTR_CreateLCDTextProgram.exit.thread ]
  ret i8 %.0
}